target datalayout = "e-m:e-p270:32:32-p271:32:32-p272:64:64-i64:64-i128:128-f80:128-n8:16:32:64-S128"
target triple = "x86_64-pc-linux-gnu"

%struct.hid_device_info = type { ptr, i16, i16, ptr, i16, ptr, ptr, i16, i16, i32, ptr, i32, i32, i32, i32 }

@.str.6 = private unnamed_addr constant [55 x i8] c"Device with requested VID/PID/(SerialNumber) not found\00", align 1
@last_global_error_str = internal global ptr null, align 8
@.str.31 = private unnamed_addr constant [3 x i8] c"%s\00", align 1

; Function Attrs: nounwind uwtable
define internal void @register_error_str(ptr noundef %0, ptr noundef %1) #0 {
  %3 = alloca ptr, align 8
  %4 = alloca ptr, align 8
  store ptr %0, ptr %3, align 8
  store ptr %1, ptr %4, align 8
  %5 = load ptr, ptr %3, align 8
  %6 = load ptr, ptr %5, align 8
  call void @free(ptr noundef %6) #10
  %7 = load ptr, ptr %4, align 8
  %8 = icmp ne ptr %7, null
  br i1 %8, label %9, label %12

9:                                                ; preds = %2
  %10 = load ptr, ptr %4, align 8
  %11 = call zeroext i1 (ptr, ...) @SDL_SetError_REAL(ptr noundef @.str.31, ptr noundef %10)
  br label %14

12:                                               ; preds = %2
  %13 = call zeroext i1 @SDL_ClearError_REAL()
  br label %14

14:                                               ; preds = %12, %9
  ret void
}

; Function Attrs: nounwind uwtable
define hidden void @PLATFORM_hid_free_enumeration(ptr noundef %0) #0 {
  %2 = alloca ptr, align 8
  %3 = alloca ptr, align 8
  %4 = alloca ptr, align 8
  store ptr %0, ptr %2, align 8
  call void @llvm.lifetime.start.p0(i64 8, ptr %3) #10
  %5 = load ptr, ptr %2, align 8
  store ptr %5, ptr %3, align 8
  br label %6

6:                                                ; preds = %9, %1
  %7 = load ptr, ptr %3, align 8
  %8 = icmp ne ptr %7, null
  br i1 %8, label %9, label %27

9:                                                ; preds = %6
  call void @llvm.lifetime.start.p0(i64 8, ptr %4) #10
  %10 = load ptr, ptr %3, align 8
  %11 = getelementptr inbounds nuw %struct.hid_device_info, ptr %10, i32 0, i32 10
  %12 = load ptr, ptr %11, align 8
  store ptr %12, ptr %4, align 8
  %13 = load ptr, ptr %3, align 8
  %14 = getelementptr inbounds nuw %struct.hid_device_info, ptr %13, i32 0, i32 0
  %15 = load ptr, ptr %14, align 8
  call void @free(ptr noundef %15) #10
  %16 = load ptr, ptr %3, align 8
  %17 = getelementptr inbounds nuw %struct.hid_device_info, ptr %16, i32 0, i32 3
  %18 = load ptr, ptr %17, align 8
  call void @free(ptr noundef %18) #10
  %19 = load ptr, ptr %3, align 8
  %20 = getelementptr inbounds nuw %struct.hid_device_info, ptr %19, i32 0, i32 5
  %21 = load ptr, ptr %20, align 8
  call void @free(ptr noundef %21) #10
  %22 = load ptr, ptr %3, align 8
  %23 = getelementptr inbounds nuw %struct.hid_device_info, ptr %22, i32 0, i32 6
  %24 = load ptr, ptr %23, align 8
  call void @free(ptr noundef %24) #10
  %25 = load ptr, ptr %3, align 8
  call void @free(ptr noundef %25) #10
  %26 = load ptr, ptr %4, align 8
  store ptr %26, ptr %3, align 8
  call void @llvm.lifetime.end.p0(i64 8, ptr %4) #10
  br label %6, !llvm.loop !8

27:                                               ; preds = %6
  call void @llvm.lifetime.end.p0(i64 8, ptr %3) #10
  ret void
}

; Function Attrs: nounwind uwtable
define internal void @register_global_error(ptr noundef %0) #0 {
  %2 = alloca ptr, align 8
  store ptr %0, ptr %2, align 8
  %3 = load ptr, ptr %2, align 8
  call void @register_error_str(ptr noundef @last_global_error_str, ptr noundef %3)
  ret void
}

; Function Attrs: nounwind uwtable
define hidden ptr @PLATFORM_hid_open(i16 noundef zeroext %0, i16 noundef zeroext %1, ptr noundef %2) #0 {
  %4 = alloca ptr, align 8
  %5 = alloca i16, align 2
  %6 = alloca i16, align 2
  %7 = alloca ptr, align 8
  %8 = alloca ptr, align 8
  %9 = alloca ptr, align 8
  %10 = alloca ptr, align 8
  %11 = alloca ptr, align 8
  %12 = alloca i32, align 4
  store i16 %0, ptr %5, align 2
  store i16 %1, ptr %6, align 2
  store ptr %2, ptr %7, align 8
  call void @llvm.lifetime.start.p0(i64 8, ptr %8) #10
  call void @llvm.lifetime.start.p0(i64 8, ptr %9) #10
  call void @llvm.lifetime.start.p0(i64 8, ptr %10) #10
  store ptr null, ptr %10, align 8
  call void @llvm.lifetime.start.p0(i64 8, ptr %11) #10
  store ptr null, ptr %11, align 8
  %13 = load i16, ptr %5, align 2
  %14 = load i16, ptr %6, align 2
  %15 = call ptr @PLATFORM_hid_enumerate(i16 noundef zeroext %13, i16 noundef zeroext %14)
  store ptr %15, ptr %8, align 8
  %16 = load ptr, ptr %8, align 8
  %17 = icmp eq ptr %16, null
  br i1 %17, label %18, label %19

18:                                               ; preds = %3
  store ptr null, ptr %4, align 8
  store i32 1, ptr %12, align 4
  br label %74

19:                                               ; preds = %3
  %20 = load ptr, ptr %8, align 8
  store ptr %20, ptr %9, align 8
  br label %21

21:                                               ; preds = %60, %19
  %22 = load ptr, ptr %9, align 8
  %23 = icmp ne ptr %22, null
  br i1 %23, label %24, label %64

24:                                               ; preds = %21
  %25 = load ptr, ptr %9, align 8
  %26 = getelementptr inbounds nuw %struct.hid_device_info, ptr %25, i32 0, i32 1
  %27 = load i16, ptr %26, align 8
  %28 = zext i16 %27 to i32
  %29 = load i16, ptr %5, align 2
  %30 = zext i16 %29 to i32
  %31 = icmp eq i32 %28, %30
  br i1 %31, label %32, label %60

32:                                               ; preds = %24
  %33 = load ptr, ptr %9, align 8
  %34 = getelementptr inbounds nuw %struct.hid_device_info, ptr %33, i32 0, i32 2
  %35 = load i16, ptr %34, align 2
  %36 = zext i16 %35 to i32
  %37 = load i16, ptr %6, align 2
  %38 = zext i16 %37 to i32
  %39 = icmp eq i32 %36, %38
  br i1 %39, label %40, label %60

40:                                               ; preds = %32
  %41 = load ptr, ptr %7, align 8
  %42 = icmp ne ptr %41, null
  br i1 %42, label %43, label %55

43:                                               ; preds = %40
  %44 = load ptr, ptr %7, align 8
  %45 = load ptr, ptr %9, align 8
  %46 = getelementptr inbounds nuw %struct.hid_device_info, ptr %45, i32 0, i32 3
  %47 = load ptr, ptr %46, align 8
  %48 = call i32 @wcscmp(ptr noundef %44, ptr noundef %47) #11
  %49 = icmp eq i32 %48, 0
  br i1 %49, label %50, label %54

50:                                               ; preds = %43
  %51 = load ptr, ptr %9, align 8
  %52 = getelementptr inbounds nuw %struct.hid_device_info, ptr %51, i32 0, i32 0
  %53 = load ptr, ptr %52, align 8
  store ptr %53, ptr %10, align 8
  br label %64

54:                                               ; preds = %43
  br label %59

55:                                               ; preds = %40
  %56 = load ptr, ptr %9, align 8
  %57 = getelementptr inbounds nuw %struct.hid_device_info, ptr %56, i32 0, i32 0
  %58 = load ptr, ptr %57, align 8
  store ptr %58, ptr %10, align 8
  br label %64

59:                                               ; preds = %54
  br label %60

60:                                               ; preds = %59, %32, %24
  %61 = load ptr, ptr %9, align 8
  %62 = getelementptr inbounds nuw %struct.hid_device_info, ptr %61, i32 0, i32 10
  %63 = load ptr, ptr %62, align 8
  store ptr %63, ptr %9, align 8
  br label %21, !llvm.loop !9

64:                                               ; preds = %55, %50, %21
  %65 = load ptr, ptr %10, align 8
  %66 = icmp ne ptr %65, null
  br i1 %66, label %67, label %70

67:                                               ; preds = %64
  %68 = load ptr, ptr %10, align 8
  %69 = call ptr @PLATFORM_hid_open_path(ptr noundef %68)
  store ptr %69, ptr %11, align 8
  br label %71

70:                                               ; preds = %64
  call void @register_global_error(ptr noundef @.str.6)
  br label %71

71:                                               ; preds = %70, %67
  %72 = load ptr, ptr %8, align 8
  call void @PLATFORM_hid_free_enumeration(ptr noundef %72)
  %73 = load ptr, ptr %11, align 8
  store ptr %73, ptr %4, align 8
  store i32 1, ptr %12, align 4
  br label %74

74:                                               ; preds = %71, %18
  call void @llvm.lifetime.end.p0(i64 8, ptr %11) #10
  call void @llvm.lifetime.end.p0(i64 8, ptr %10) #10
  call void @llvm.lifetime.end.p0(i64 8, ptr %9) #10
  call void @llvm.lifetime.end.p0(i64 8, ptr %8) #10
  %75 = load ptr, ptr %4, align 8
  ret ptr %75
}