; Function Attrs: nounwind uwtable
define hidden noundef ptr @PLATFORM_hid_open(i16 noundef zeroext %0, i16 noundef zeroext %1, ptr noundef readonly %2) local_unnamed_addr #1 {
  %4 = tail call ptr @PLATFORM_hid_enumerate(i16 noundef zeroext %0, i16 noundef zeroext %1)
  %5 = icmp eq ptr %4, null
  br i1 %5, label %PLATFORM_hid_free_enumeration.exit, label %.preheader

.preheader:                                       ; preds = %3
  %.not24 = icmp eq ptr %2, null
  br i1 %.not24, label %.preheader.split.us, label %.preheader.split

.preheader.split.us:                              ; preds = %.preheader, %13
  %.02029.us = phi ptr [ %15, %13 ], [ %4, %.preheader ]
  %6 = getelementptr inbounds nuw i8, ptr %.02029.us, i64 8
  %7 = load i16, ptr %6, align 8
  %8 = icmp eq i16 %7, %0
  br i1 %8, label %9, label %13

9:                                                ; preds = %.preheader.split.us
  %10 = getelementptr inbounds nuw i8, ptr %.02029.us, i64 10
  %11 = load i16, ptr %10, align 2
  %12 = icmp eq i16 %11, %1
  br i1 %12, label %.split.us, label %13

13:                                               ; preds = %9, %.preheader.split.us
  %14 = getelementptr inbounds nuw i8, ptr %.02029.us, i64 56
  %15 = load ptr, ptr %14, align 8
  %.not.us = icmp eq ptr %15, null
  br i1 %.not.us, label %.thread, label %.preheader.split.us, !llvm.loop !10

.preheader.split:                                 ; preds = %.preheader, %28
  %.02029 = phi ptr [ %30, %28 ], [ %4, %.preheader ]
  %16 = getelementptr inbounds nuw i8, ptr %.02029, i64 8
  %17 = load i16, ptr %16, align 8
  %18 = icmp eq i16 %17, %0
  br i1 %18, label %19, label %28

19:                                               ; preds = %.preheader.split
  %20 = getelementptr inbounds nuw i8, ptr %.02029, i64 10
  %21 = load i16, ptr %20, align 2
  %22 = icmp eq i16 %21, %1
  br i1 %22, label %23, label %28

23:                                               ; preds = %19
  %24 = getelementptr inbounds nuw i8, ptr %.02029, i64 16
  %25 = load ptr, ptr %24, align 8
  %26 = tail call i32 @wcscmp(ptr noundef nonnull %2, ptr noundef %25) #23
  %27 = icmp eq i32 %26, 0
  br i1 %27, label %.split.us, label %28

28:                                               ; preds = %23, %19, %.preheader.split
  %29 = getelementptr inbounds nuw i8, ptr %.02029, i64 56
  %30 = load ptr, ptr %29, align 8
  %.not = icmp eq ptr %30, null
  br i1 %.not, label %.thread, label %.preheader.split, !llvm.loop !10

.split.us:                                        ; preds = %23, %9
  %.us-phi = phi ptr [ %.02029.us, %9 ], [ %.02029, %23 ]
  %.019 = load ptr, ptr %.us-phi, align 8
  %.not25 = icmp eq ptr %.019, null
  br i1 %.not25, label %.thread, label %31

31:                                               ; preds = %.split.us
  %32 = tail call ptr @PLATFORM_hid_open_path(ptr noundef nonnull %.019)
  br label %34

.thread:                                          ; preds = %28, %13, %.split.us
  %33 = tail call zeroext i1 (ptr, ...) @SDL_SetError_REAL(ptr noundef nonnull @.str.31, ptr noundef nonnull @.str.6) #22
  br label %34

34:                                               ; preds = %.thread, %31
  %.0 = phi ptr [ %32, %31 ], [ null, %.thread ]
  br label %.lr.ph.i

.lr.ph.i:                                         ; preds = %34, %.lr.ph.i
  %.010.i = phi ptr [ %36, %.lr.ph.i ], [ %4, %34 ]
  %35 = getelementptr inbounds nuw i8, ptr %.010.i, i64 56
  %36 = load ptr, ptr %35, align 8
  %37 = load ptr, ptr %.010.i, align 8
  tail call void @free(ptr noundef %37) #22
  %38 = getelementptr inbounds nuw i8, ptr %.010.i, i64 16
  %39 = load ptr, ptr %38, align 8
  tail call void @free(ptr noundef %39) #22
  %40 = getelementptr inbounds nuw i8, ptr %.010.i, i64 32
  %41 = load ptr, ptr %40, align 8
  tail call void @free(ptr noundef %41) #22
  %42 = getelementptr inbounds nuw i8, ptr %.010.i, i64 40
  %43 = load ptr, ptr %42, align 8
  tail call void @free(ptr noundef %43) #22
  tail call void @free(ptr noundef nonnull %.010.i) #22
  %.not.i = icmp eq ptr %36, null
  br i1 %.not.i, label %PLATFORM_hid_free_enumeration.exit, label %.lr.ph.i, !llvm.loop !8

PLATFORM_hid_free_enumeration.exit:               ; preds = %.lr.ph.i, %3
  %.021 = phi ptr [ null, %3 ], [ %.0, %.lr.ph.i ]
  ret ptr %.021
}